target datalayout = "e-m:e-p270:32:32-p271:32:32-p272:64:64-i64:64-i128:128-f80:128-n8:16:32:64-S128"
target triple = "x86_64-pc-linux-gnu"

%"class.llvm::SmallVectorBase.22" = type { ptr, i32, i32 }
%"class.llvm::BumpPtrAllocatorImpl" = type { ptr, ptr, %"class.llvm::SmallVector.235", %"class.llvm::SmallVector.240", i64, i64 }
%"class.llvm::SmallVector.235" = type { %"class.llvm::SmallVectorImpl.236", %"struct.llvm::SmallVectorStorage.239" }
%"class.llvm::SmallVectorImpl.236" = type { %"class.llvm::SmallVectorTemplateBase.237" }
%"class.llvm::SmallVectorTemplateBase.237" = type { %"class.llvm::SmallVectorTemplateCommon.238" }
%"class.llvm::SmallVectorTemplateCommon.238" = type { %"class.llvm::SmallVectorBase.22" }
%"struct.llvm::SmallVectorStorage.239" = type { [32 x i8] }
%"class.llvm::SmallVector.240" = type { %"class.llvm::SmallVectorImpl.241" }
%"class.llvm::SmallVectorImpl.241" = type { %"class.llvm::SmallVectorTemplateBase.242" }
%"class.llvm::SmallVectorTemplateBase.242" = type { %"class.llvm::SmallVectorTemplateCommon.243" }
%"class.llvm::SmallVectorTemplateCommon.243" = type { %"class.llvm::SmallVectorBase.22" }
%"class.llvm::raw_ostream" = type { ptr, i32, ptr, ptr, ptr, i8, i32 }
%"class.(anonymous namespace)::MicrosoftCXXNameMangler" = type <{ ptr, ptr, ptr, i32, [4 x i8], %"class.llvm::SmallVector.588", %"class.llvm::DenseMap.593", %"class.llvm::DenseMap.593", %"class.llvm::DenseMap.596", %"class.llvm::BumpPtrAllocatorImpl", %"class.llvm::StringSaver", %"class.std::set", i8, [7 x i8] }>
%"class.llvm::SmallVector.588" = type { %"class.llvm::SmallVectorImpl.589", %"struct.llvm::SmallVectorStorage.592" }
%"class.llvm::SmallVectorImpl.589" = type { %"class.llvm::SmallVectorTemplateBase.590" }
%"class.llvm::SmallVectorTemplateBase.590" = type { %"class.llvm::SmallVectorTemplateCommon.591" }
%"class.llvm::SmallVectorTemplateCommon.591" = type { %"class.llvm::SmallVectorBase.22" }
%"struct.llvm::SmallVectorStorage.592" = type { [320 x i8] }
%"class.llvm::DenseMap.593" = type <{ ptr, i32, i32, i32, [4 x i8] }>
%"class.llvm::DenseMap.596" = type <{ ptr, i32, i32, i32, [4 x i8] }>
%"class.llvm::StringSaver" = type { ptr }
%"class.std::set" = type { %"class.std::_Rb_tree.599" }
%"class.std::_Rb_tree.599" = type { %"struct.std::_Rb_tree<std::pair<int, bool>, std::pair<int, bool>, std::_Identity<std::pair<int, bool>>, std::less<std::pair<int, bool>>>::_Rb_tree_impl" }
%"struct.std::_Rb_tree<std::pair<int, bool>, std::pair<int, bool>, std::_Identity<std::pair<int, bool>>, std::less<std::pair<int, bool>>>::_Rb_tree_impl" = type { [8 x i8], %"struct.std::_Rb_tree_header" }
%"struct.std::_Rb_tree_header" = type { %"struct.std::_Rb_tree_node_base", i64 }
%"struct.std::_Rb_tree_node_base" = type { i32, ptr, ptr, ptr }
%union.anon.689 = type { i64 }
%"class.llvm::APFloat" = type { [8 x i8], %"union.llvm::APFloat::Storage" }
%"union.llvm::APFloat::Storage" = type { %"class.llvm::detail::DoubleAPFloat", [8 x i8] }
%"class.llvm::detail::DoubleAPFloat" = type { ptr, %"class.std::unique_ptr.860" }
%"class.std::unique_ptr.860" = type { %"struct.std::__uniq_ptr_data.861" }
%"struct.std::__uniq_ptr_data.861" = type { %"class.std::__uniq_ptr_impl.862" }
%"class.std::__uniq_ptr_impl.862" = type { %"class.std::tuple.863" }
%"class.std::tuple.863" = type { %"struct.std::_Tuple_impl.864" }
%"struct.std::_Tuple_impl.864" = type { %"struct.std::_Head_base.867" }
%"struct.std::_Head_base.867" = type { ptr }
%"class.llvm::APInt" = type <{ %union.anon.689, i32, [4 x i8] }>

; Function Attrs: mustprogress nounwind uwtable
define linkonce_odr hidden noundef zeroext i1 @_ZNK4llvm5APInt12isSingleWordEv(ptr noundef nonnull align 8 dereferenceable(12) %0) #0 comdat align 2 {
  %2 = alloca ptr, align 8
  store ptr %0, ptr %2, align 8
  %3 = load ptr, ptr %2, align 8
  %4 = getelementptr inbounds nuw %"class.llvm::APInt", ptr %3, i32 0, i32 1
  %5 = load i32, ptr %4, align 8
  %6 = icmp ule i32 %5, 64
  ret i1 %6
}

; Function Attrs: mustprogress nounwind uwtable
define linkonce_odr hidden noundef zeroext i1 @_ZNK4llvm5APInt12needsCleanupEv(ptr noundef nonnull align 8 dereferenceable(12) %0) #0 comdat align 2 {
  %2 = alloca ptr, align 8
  store ptr %0, ptr %2, align 8
  %3 = load ptr, ptr %2, align 8
  %4 = call noundef zeroext i1 @_ZNK4llvm5APInt12isSingleWordEv(ptr noundef nonnull align 8 dereferenceable(12) %3)
  %5 = xor i1 %4, true
  ret i1 %5
}

; Function Attrs: mustprogress nounwind uwtable
define linkonce_odr hidden noundef zeroext i1 @_ZN4llvm7APFloat10usesLayoutINS_6detail13DoubleAPFloatEEEbRKNS_12fltSemanticsE(ptr noundef nonnull align 1 %0) #0 comdat align 2 {
  %2 = alloca ptr, align 8
  store ptr %0, ptr %2, align 8
  %3 = load ptr, ptr %2, align 8
  %4 = call noundef nonnull align 1 ptr @_ZN4llvm11APFloatBase15PPCDoubleDoubleEv() #19
  %5 = icmp eq ptr %3, %4
  ret i1 %5
}

; Function Attrs: mustprogress nounwind uwtable
define linkonce_odr hidden noundef zeroext i1 @_ZN4llvm7APFloat10usesLayoutINS_6detail9IEEEFloatEEEbRKNS_12fltSemanticsE(ptr noundef nonnull align 1 %0) #0 comdat align 2 {
  %2 = alloca ptr, align 8
  store ptr %0, ptr %2, align 8
  %3 = load ptr, ptr %2, align 8
  %4 = call noundef nonnull align 1 ptr @_ZN4llvm11APFloatBase15PPCDoubleDoubleEv() #19
  %5 = icmp ne ptr %3, %4
  ret i1 %5
}

; Function Attrs: mustprogress nounwind uwtable
define linkonce_odr hidden void @_ZN4llvm5APIntD2Ev(ptr noundef nonnull align 8 dereferenceable(12) %0) unnamed_addr #0 comdat align 2 {
  %2 = alloca ptr, align 8
  store ptr %0, ptr %2, align 8
  %3 = load ptr, ptr %2, align 8
  %4 = call noundef zeroext i1 @_ZNK4llvm5APInt12needsCleanupEv(ptr noundef nonnull align 8 dereferenceable(12) %3)
  br i1 %4, label %5, label %11

5:                                                ; preds = %1
  %6 = getelementptr inbounds nuw %"class.llvm::APInt", ptr %3, i32 0, i32 0
  %7 = load ptr, ptr %6, align 8
  %8 = icmp eq ptr %7, null
  br i1 %8, label %10, label %9

9:                                                ; preds = %5
  call void @_ZdaPv(ptr noundef %7) #15
  br label %10

10:                                               ; preds = %9, %5
  br label %11

11:                                               ; preds = %10, %1
  ret void
}

; Function Attrs: mustprogress nounwind uwtable
define linkonce_odr hidden void @_ZNK4llvm7APFloat14bitcastToAPIntEv(ptr dead_on_unwind noalias writable sret(%"class.llvm::APInt") align 8 %0, ptr noundef nonnull align 8 dereferenceable(32) %1) #0 comdat align 2 {
  %3 = alloca ptr, align 8
  %4 = alloca ptr, align 8
  store ptr %0, ptr %3, align 8
  store ptr %1, ptr %4, align 8
  %5 = load ptr, ptr %4, align 8
  br label %6

6:                                                ; preds = %2
  %7 = call noundef nonnull align 1 ptr @_ZNK4llvm7APFloat12getSemanticsEv(ptr noundef nonnull align 8 dereferenceable(32) %5)
  %8 = call noundef zeroext i1 @_ZN4llvm7APFloat10usesLayoutINS_6detail9IEEEFloatEEEbRKNS_12fltSemanticsE(ptr noundef nonnull align 1 %7)
  br i1 %8, label %9, label %11

9:                                                ; preds = %6
  %10 = getelementptr inbounds nuw %"class.llvm::APFloat", ptr %5, i32 0, i32 1
  call void @_ZNK4llvm6detail9IEEEFloat14bitcastToAPIntEv(ptr dead_on_unwind writable sret(%"class.llvm::APInt") align 8 %0, ptr noundef nonnull align 8 dereferenceable(24) %10)
  br label %18

11:                                               ; preds = %6
  %12 = call noundef nonnull align 1 ptr @_ZNK4llvm7APFloat12getSemanticsEv(ptr noundef nonnull align 8 dereferenceable(32) %5)
  %13 = call noundef zeroext i1 @_ZN4llvm7APFloat10usesLayoutINS_6detail13DoubleAPFloatEEEbRKNS_12fltSemanticsE(ptr noundef nonnull align 1 %12)
  br i1 %13, label %14, label %16

14:                                               ; preds = %11
  %15 = getelementptr inbounds nuw %"class.llvm::APFloat", ptr %5, i32 0, i32 1
  call void @_ZNK4llvm6detail13DoubleAPFloat14bitcastToAPIntEv(ptr dead_on_unwind writable sret(%"class.llvm::APInt") align 8 %0, ptr noundef nonnull align 8 dereferenceable(16) %15)
  br label %18

16:                                               ; preds = %11
  unreachable

17:                                               ; No predecessors!
  call void @llvm.trap()
  unreachable

18:                                               ; preds = %14, %9
  ret void
}

; Function Attrs: mustprogress nounwind uwtable
define linkonce_odr hidden noundef nonnull align 8 dereferenceable(48) ptr @_ZN4llvm11raw_ostreamlsEc(ptr noundef nonnull align 8 dereferenceable(48) %0, i8 noundef signext %1) #0 comdat align 2 {
  %3 = alloca ptr, align 8
  %4 = alloca ptr, align 8
  %5 = alloca i8, align 1
  store ptr %0, ptr %4, align 8
  store i8 %1, ptr %5, align 1
  %6 = load ptr, ptr %4, align 8
  %7 = getelementptr inbounds nuw %"class.llvm::raw_ostream", ptr %6, i32 0, i32 4
  %8 = load ptr, ptr %7, align 8
  %9 = getelementptr inbounds nuw %"class.llvm::raw_ostream", ptr %6, i32 0, i32 3
  %10 = load ptr, ptr %9, align 8
  %11 = icmp uge ptr %8, %10
  br i1 %11, label %12, label %15

12:                                               ; preds = %2
  %13 = load i8, ptr %5, align 1
  %14 = call noundef nonnull align 8 dereferenceable(48) ptr @_ZN4llvm11raw_ostream5writeEh(ptr noundef nonnull align 8 dereferenceable(48) %6, i8 noundef zeroext %13)
  store ptr %14, ptr %3, align 8
  br label %20

15:                                               ; preds = %2
  %16 = load i8, ptr %5, align 1
  %17 = getelementptr inbounds nuw %"class.llvm::raw_ostream", ptr %6, i32 0, i32 4
  %18 = load ptr, ptr %17, align 8
  %19 = getelementptr inbounds i8, ptr %18, i32 1
  store ptr %19, ptr %17, align 8
  store i8 %16, ptr %18, align 1
  store ptr %6, ptr %3, align 8
  br label %20

20:                                               ; preds = %15, %12
  %21 = load ptr, ptr %3, align 8
  ret ptr %21
}

; Function Attrs: mustprogress nounwind uwtable
define linkonce_odr hidden noundef nonnull align 1 ptr @_ZNK4llvm7APFloat12getSemanticsEv(ptr noundef nonnull align 8 dereferenceable(32) %0) #0 comdat align 2 {
  %2 = alloca ptr, align 8
  store ptr %0, ptr %2, align 8
  %3 = load ptr, ptr %2, align 8
  %4 = getelementptr inbounds nuw %"class.llvm::APFloat", ptr %3, i32 0, i32 1
  %5 = load ptr, ptr %4, align 8
  ret ptr %5
}

; Function Attrs: mustprogress nounwind uwtable
define internal void @_ZN12_GLOBAL__N_123MicrosoftCXXNameMangler11mangleFloatEN4llvm7APFloatE(ptr noundef nonnull align 8 dereferenceable(593) %0, ptr noundef %1) #0 align 2 {
  %3 = alloca ptr, align 8
  %4 = alloca ptr, align 8
  %5 = alloca %"class.llvm::APInt", align 8
  store ptr %0, ptr %3, align 8
  store ptr %1, ptr %4, align 8
  %6 = load ptr, ptr %3, align 8
  %7 = call noundef nonnull align 1 ptr @_ZNK4llvm7APFloat12getSemanticsEv(ptr noundef nonnull align 8 dereferenceable(32) %1)
  %8 = call noundef i32 @_ZN4llvm11APFloatBase15SemanticsToEnumERKNS_12fltSemanticsE(ptr noundef nonnull align 1 %7)
  switch i32 %8, label %38 [
    i32 2, label %9
    i32 3, label %13
    i32 0, label %17
    i32 1, label %21
    i32 17, label %25
    i32 4, label %29
    i32 5, label %33
    i32 6, label %37
    i32 8, label %37
    i32 9, label %37
    i32 7, label %37
    i32 10, label %37
    i32 11, label %37
    i32 12, label %37
    i32 13, label %37
    i32 14, label %37
    i32 15, label %37
    i32 16, label %37
  ]

9:                                                ; preds = %2
  %10 = getelementptr inbounds nuw %"class.(anonymous namespace)::MicrosoftCXXNameMangler", ptr %6, i32 0, i32 1
  %11 = load ptr, ptr %10, align 8
  %12 = call noundef nonnull align 8 dereferenceable(48) ptr @_ZN4llvm11raw_ostreamlsEc(ptr noundef nonnull align 8 dereferenceable(48) %11, i8 noundef signext 65)
  br label %38

13:                                               ; preds = %2
  %14 = getelementptr inbounds nuw %"class.(anonymous namespace)::MicrosoftCXXNameMangler", ptr %6, i32 0, i32 1
  %15 = load ptr, ptr %14, align 8
  %16 = call noundef nonnull align 8 dereferenceable(48) ptr @_ZN4llvm11raw_ostreamlsEc(ptr noundef nonnull align 8 dereferenceable(48) %15, i8 noundef signext 66)
  br label %38

17:                                               ; preds = %2
  %18 = getelementptr inbounds nuw %"class.(anonymous namespace)::MicrosoftCXXNameMangler", ptr %6, i32 0, i32 1
  %19 = load ptr, ptr %18, align 8
  %20 = call noundef nonnull align 8 dereferenceable(48) ptr @_ZN4llvm11raw_ostreamlsEc(ptr noundef nonnull align 8 dereferenceable(48) %19, i8 noundef signext 86)
  br label %38

21:                                               ; preds = %2
  %22 = getelementptr inbounds nuw %"class.(anonymous namespace)::MicrosoftCXXNameMangler", ptr %6, i32 0, i32 1
  %23 = load ptr, ptr %22, align 8
  %24 = call noundef nonnull align 8 dereferenceable(48) ptr @_ZN4llvm11raw_ostreamlsEc(ptr noundef nonnull align 8 dereferenceable(48) %23, i8 noundef signext 87)
  br label %38

25:                                               ; preds = %2
  %26 = getelementptr inbounds nuw %"class.(anonymous namespace)::MicrosoftCXXNameMangler", ptr %6, i32 0, i32 1
  %27 = load ptr, ptr %26, align 8
  %28 = call noundef nonnull align 8 dereferenceable(48) ptr @_ZN4llvm11raw_ostreamlsEc(ptr noundef nonnull align 8 dereferenceable(48) %27, i8 noundef signext 88)
  br label %38

29:                                               ; preds = %2
  %30 = getelementptr inbounds nuw %"class.(anonymous namespace)::MicrosoftCXXNameMangler", ptr %6, i32 0, i32 1
  %31 = load ptr, ptr %30, align 8
  %32 = call noundef nonnull align 8 dereferenceable(48) ptr @_ZN4llvm11raw_ostreamlsEc(ptr noundef nonnull align 8 dereferenceable(48) %31, i8 noundef signext 89)
  br label %38

33:                                               ; preds = %2
  %34 = getelementptr inbounds nuw %"class.(anonymous namespace)::MicrosoftCXXNameMangler", ptr %6, i32 0, i32 1
  %35 = load ptr, ptr %34, align 8
  %36 = call noundef nonnull align 8 dereferenceable(48) ptr @_ZN4llvm11raw_ostreamlsEc(ptr noundef nonnull align 8 dereferenceable(48) %35, i8 noundef signext 90)
  br label %38

37:                                               ; preds = %2, %2, %2, %2, %2, %2, %2, %2, %2, %2, %2
  unreachable

38:                                               ; preds = %33, %29, %25, %21, %17, %13, %9, %2
  call void @_ZNK4llvm7APFloat14bitcastToAPIntEv(ptr dead_on_unwind writable sret(%"class.llvm::APInt") align 8 %5, ptr noundef nonnull align 8 dereferenceable(32) %1)
  call void @_ZN12_GLOBAL__N_123MicrosoftCXXNameMangler10mangleBitsEN4llvm5APIntE(ptr noundef nonnull align 8 dereferenceable(593) %6, ptr noundef %5)
  call void @_ZN4llvm5APIntD2Ev(ptr noundef nonnull align 8 dereferenceable(12) %5) #14
  ret void
}