; Function Attrs: mustprogress nounwind uwtable
define internal fastcc void @_ZN12_GLOBAL__N_123MicrosoftCXXNameMangler11mangleFloatEN4llvm7APFloatE(ptr nocapture noundef nonnull readonly align 8 dereferenceable(593) %0, ptr noundef %1) unnamed_addr #0 align 2 {
  %3 = alloca %"class.llvm::APInt", align 8
  %4 = getelementptr inbounds nuw i8, ptr %1, i64 8
  %5 = load ptr, ptr %4, align 8
  %6 = tail call noundef i32 @_ZN4llvm11APFloatBase15SemanticsToEnumERKNS_12fltSemanticsE(ptr noundef nonnull align 1 %5) #21
  switch i32 %6, label %_ZN4llvm11raw_ostreamlsEc.exit [
    i32 2, label %7
    i32 3, label %18
    i32 0, label %29
    i32 1, label %40
    i32 17, label %51
    i32 4, label %62
    i32 5, label %73
  ]

7:                                                ; preds = %2
  %8 = getelementptr inbounds nuw i8, ptr %0, i64 8
  %9 = load ptr, ptr %8, align 8
  %10 = getelementptr inbounds nuw i8, ptr %9, i64 32
  %11 = load ptr, ptr %10, align 8
  %12 = getelementptr inbounds nuw i8, ptr %9, i64 24
  %13 = load ptr, ptr %12, align 8
  %.not.i = icmp ult ptr %11, %13
  br i1 %.not.i, label %16, label %14

14:                                               ; preds = %7
  %15 = tail call noundef nonnull align 8 dereferenceable(48) ptr @_ZN4llvm11raw_ostream5writeEh(ptr noundef nonnull align 8 dereferenceable(48) %9, i8 noundef zeroext 65) #21
  br label %_ZN4llvm11raw_ostreamlsEc.exit

16:                                               ; preds = %7
  %17 = getelementptr inbounds i8, ptr %11, i64 1
  store ptr %17, ptr %10, align 8
  store i8 65, ptr %11, align 1
  br label %_ZN4llvm11raw_ostreamlsEc.exit

18:                                               ; preds = %2
  %19 = getelementptr inbounds nuw i8, ptr %0, i64 8
  %20 = load ptr, ptr %19, align 8
  %21 = getelementptr inbounds nuw i8, ptr %20, i64 32
  %22 = load ptr, ptr %21, align 8
  %23 = getelementptr inbounds nuw i8, ptr %20, i64 24
  %24 = load ptr, ptr %23, align 8
  %.not.i1 = icmp ult ptr %22, %24
  br i1 %.not.i1, label %27, label %25

25:                                               ; preds = %18
  %26 = tail call noundef nonnull align 8 dereferenceable(48) ptr @_ZN4llvm11raw_ostream5writeEh(ptr noundef nonnull align 8 dereferenceable(48) %20, i8 noundef zeroext 66) #21
  br label %_ZN4llvm11raw_ostreamlsEc.exit

27:                                               ; preds = %18
  %28 = getelementptr inbounds i8, ptr %22, i64 1
  store ptr %28, ptr %21, align 8
  store i8 66, ptr %22, align 1
  br label %_ZN4llvm11raw_ostreamlsEc.exit

29:                                               ; preds = %2
  %30 = getelementptr inbounds nuw i8, ptr %0, i64 8
  %31 = load ptr, ptr %30, align 8
  %32 = getelementptr inbounds nuw i8, ptr %31, i64 32
  %33 = load ptr, ptr %32, align 8
  %34 = getelementptr inbounds nuw i8, ptr %31, i64 24
  %35 = load ptr, ptr %34, align 8
  %.not.i4 = icmp ult ptr %33, %35
  br i1 %.not.i4, label %38, label %36

36:                                               ; preds = %29
  %37 = tail call noundef nonnull align 8 dereferenceable(48) ptr @_ZN4llvm11raw_ostream5writeEh(ptr noundef nonnull align 8 dereferenceable(48) %31, i8 noundef zeroext 86) #21
  br label %_ZN4llvm11raw_ostreamlsEc.exit

38:                                               ; preds = %29
  %39 = getelementptr inbounds i8, ptr %33, i64 1
  store ptr %39, ptr %32, align 8
  store i8 86, ptr %33, align 1
  br label %_ZN4llvm11raw_ostreamlsEc.exit

40:                                               ; preds = %2
  %41 = getelementptr inbounds nuw i8, ptr %0, i64 8
  %42 = load ptr, ptr %41, align 8
  %43 = getelementptr inbounds nuw i8, ptr %42, i64 32
  %44 = load ptr, ptr %43, align 8
  %45 = getelementptr inbounds nuw i8, ptr %42, i64 24
  %46 = load ptr, ptr %45, align 8
  %.not.i7 = icmp ult ptr %44, %46
  br i1 %.not.i7, label %49, label %47

47:                                               ; preds = %40
  %48 = tail call noundef nonnull align 8 dereferenceable(48) ptr @_ZN4llvm11raw_ostream5writeEh(ptr noundef nonnull align 8 dereferenceable(48) %42, i8 noundef zeroext 87) #21
  br label %_ZN4llvm11raw_ostreamlsEc.exit

49:                                               ; preds = %40
  %50 = getelementptr inbounds i8, ptr %44, i64 1
  store ptr %50, ptr %43, align 8
  store i8 87, ptr %44, align 1
  br label %_ZN4llvm11raw_ostreamlsEc.exit

51:                                               ; preds = %2
  %52 = getelementptr inbounds nuw i8, ptr %0, i64 8
  %53 = load ptr, ptr %52, align 8
  %54 = getelementptr inbounds nuw i8, ptr %53, i64 32
  %55 = load ptr, ptr %54, align 8
  %56 = getelementptr inbounds nuw i8, ptr %53, i64 24
  %57 = load ptr, ptr %56, align 8
  %.not.i10 = icmp ult ptr %55, %57
  br i1 %.not.i10, label %60, label %58

58:                                               ; preds = %51
  %59 = tail call noundef nonnull align 8 dereferenceable(48) ptr @_ZN4llvm11raw_ostream5writeEh(ptr noundef nonnull align 8 dereferenceable(48) %53, i8 noundef zeroext 88) #21
  br label %_ZN4llvm11raw_ostreamlsEc.exit

60:                                               ; preds = %51
  %61 = getelementptr inbounds i8, ptr %55, i64 1
  store ptr %61, ptr %54, align 8
  store i8 88, ptr %55, align 1
  br label %_ZN4llvm11raw_ostreamlsEc.exit

62:                                               ; preds = %2
  %63 = getelementptr inbounds nuw i8, ptr %0, i64 8
  %64 = load ptr, ptr %63, align 8
  %65 = getelementptr inbounds nuw i8, ptr %64, i64 32
  %66 = load ptr, ptr %65, align 8
  %67 = getelementptr inbounds nuw i8, ptr %64, i64 24
  %68 = load ptr, ptr %67, align 8
  %.not.i13 = icmp ult ptr %66, %68
  br i1 %.not.i13, label %71, label %69

69:                                               ; preds = %62
  %70 = tail call noundef nonnull align 8 dereferenceable(48) ptr @_ZN4llvm11raw_ostream5writeEh(ptr noundef nonnull align 8 dereferenceable(48) %64, i8 noundef zeroext 89) #21
  br label %_ZN4llvm11raw_ostreamlsEc.exit

71:                                               ; preds = %62
  %72 = getelementptr inbounds i8, ptr %66, i64 1
  store ptr %72, ptr %65, align 8
  store i8 89, ptr %66, align 1
  br label %_ZN4llvm11raw_ostreamlsEc.exit

73:                                               ; preds = %2
  %74 = getelementptr inbounds nuw i8, ptr %0, i64 8
  %75 = load ptr, ptr %74, align 8
  %76 = getelementptr inbounds nuw i8, ptr %75, i64 32
  %77 = load ptr, ptr %76, align 8
  %78 = getelementptr inbounds nuw i8, ptr %75, i64 24
  %79 = load ptr, ptr %78, align 8
  %.not.i16 = icmp ult ptr %77, %79
  br i1 %.not.i16, label %82, label %80

80:                                               ; preds = %73
  %81 = tail call noundef nonnull align 8 dereferenceable(48) ptr @_ZN4llvm11raw_ostream5writeEh(ptr noundef nonnull align 8 dereferenceable(48) %75, i8 noundef zeroext 90) #21
  br label %_ZN4llvm11raw_ostreamlsEc.exit

82:                                               ; preds = %73
  %83 = getelementptr inbounds i8, ptr %77, i64 1
  store ptr %83, ptr %76, align 8
  store i8 90, ptr %77, align 1
  br label %_ZN4llvm11raw_ostreamlsEc.exit

_ZN4llvm11raw_ostreamlsEc.exit:                   ; preds = %82, %80, %71, %69, %60, %58, %49, %47, %38, %36, %27, %25, %16, %14, %2
  %84 = load ptr, ptr %4, align 8, !noalias !171
  %85 = tail call noundef nonnull align 1 ptr @_ZN4llvm11APFloatBase15PPCDoubleDoubleEv() #24
  %.not.i19 = icmp eq ptr %84, %85
  br i1 %.not.i19, label %87, label %86

86:                                               ; preds = %_ZN4llvm11raw_ostreamlsEc.exit
  call void @_ZNK4llvm6detail9IEEEFloat14bitcastToAPIntEv(ptr dead_on_unwind nonnull writable sret(%"class.llvm::APInt") align 8 %3, ptr noundef nonnull align 8 dereferenceable(24) %4) #21
  br label %_ZNK4llvm7APFloat14bitcastToAPIntEv.exit

87:                                               ; preds = %_ZN4llvm11raw_ostreamlsEc.exit
  call void @_ZNK4llvm6detail13DoubleAPFloat14bitcastToAPIntEv(ptr dead_on_unwind nonnull writable sret(%"class.llvm::APInt") align 8 %3, ptr noundef nonnull align 8 dereferenceable(16) %4) #21
  br label %_ZNK4llvm7APFloat14bitcastToAPIntEv.exit

_ZNK4llvm7APFloat14bitcastToAPIntEv.exit:         ; preds = %86, %87
  call fastcc void @_ZN12_GLOBAL__N_123MicrosoftCXXNameMangler10mangleBitsEN4llvm5APIntE(ptr noundef nonnull align 8 dereferenceable(593) %0, ptr noundef nonnull %3)
  %88 = getelementptr inbounds nuw i8, ptr %3, i64 8
  %89 = load i32, ptr %88, align 8
  %90 = icmp ugt i32 %89, 64
  br i1 %90, label %91, label %_ZN4llvm5APIntD2Ev.exit

91:                                               ; preds = %_ZNK4llvm7APFloat14bitcastToAPIntEv.exit
  %92 = load ptr, ptr %3, align 8
  %93 = icmp eq ptr %92, null
  br i1 %93, label %_ZN4llvm5APIntD2Ev.exit, label %94

94:                                               ; preds = %91
  call void @_ZdaPv(ptr noundef nonnull %92) #22
  br label %_ZN4llvm5APIntD2Ev.exit

_ZN4llvm5APIntD2Ev.exit:                          ; preds = %_ZNK4llvm7APFloat14bitcastToAPIntEv.exit, %91, %94
  ret void
}